target datalayout = "e-m:e-p270:32:32-p271:32:32-p272:64:64-i64:64-i128:128-f80:128-n8:16:32:64-S128"
target triple = "x86_64-pc-linux-gnu"

%struct.ident_t = type { i32, i32, i32, i32, ptr }
%"class.ncnn::Packing" = type { %"class.ncnn::Layer", i32, i32, i32, i32, i32, i32 }
%"class.ncnn::Layer" = type { ptr, i8, i8, i8, i8, i8, i8, i8, i8, i8, i8, i8, i8, i8, i8, i8, i8, i8, i8, i8, i8, i32, ptr, i32, %"class.std::__cxx11::basic_string", %"class.std::__cxx11::basic_string", %"class.std::vector", %"class.std::vector", %"class.std::vector.3", %"class.std::vector.3" }
%"class.std::__cxx11::basic_string" = type { %"struct.std::__cxx11::basic_string<char>::_Alloc_hider", i64, %union.anon }
%"struct.std::__cxx11::basic_string<char>::_Alloc_hider" = type { ptr }
%union.anon = type { i64, [8 x i8] }
%"class.std::vector" = type { %"struct.std::_Vector_base" }
%"struct.std::_Vector_base" = type { %"struct.std::_Vector_base<int, std::allocator<int>>::_Vector_impl" }
%"struct.std::_Vector_base<int, std::allocator<int>>::_Vector_impl" = type { %"struct.std::_Vector_base<int, std::allocator<int>>::_Vector_impl_data" }
%"struct.std::_Vector_base<int, std::allocator<int>>::_Vector_impl_data" = type { ptr, ptr, ptr }
%"class.std::vector.3" = type { %"struct.std::_Vector_base.4" }
%"struct.std::_Vector_base.4" = type { %"struct.std::_Vector_base<ncnn::Mat, std::allocator<ncnn::Mat>>::_Vector_impl" }
%"struct.std::_Vector_base<ncnn::Mat, std::allocator<ncnn::Mat>>::_Vector_impl" = type { %"struct.std::_Vector_base<ncnn::Mat, std::allocator<ncnn::Mat>>::_Vector_impl_data" }
%"struct.std::_Vector_base<ncnn::Mat, std::allocator<ncnn::Mat>>::_Vector_impl_data" = type { ptr, ptr, ptr }
%"class.ncnn::Mat" = type { ptr, ptr, i64, i32, ptr, i32, i32, i32, i32, i32, i64 }

@1 = private unnamed_addr constant %struct.ident_t { i32 0, i32 514, i32 0, i32 22, ptr @0 }, align 8

; Function Attrs: noinline noreturn nounwind uwtable
define linkonce_odr hidden void @__clang_call_terminate(ptr noundef %0) #10 comdat {
  %2 = call ptr @__cxa_begin_catch(ptr %0) #8
  call void @_ZSt9terminatev() #13
  unreachable
}

; Function Attrs: alwaysinline mustprogress nounwind uwtable
define linkonce_odr hidden noundef ptr @_ZNK4ncnn3MatcvPKT_IhEEv(ptr noundef nonnull align 8 dereferenceable(72) %0) #9 comdat align 2 {
  %2 = alloca ptr, align 8
  store ptr %0, ptr %2, align 8, !tbaa !35
  %3 = load ptr, ptr %2, align 8
  %4 = getelementptr inbounds nuw %"class.ncnn::Mat", ptr %3, i32 0, i32 0
  %5 = load ptr, ptr %4, align 8, !tbaa !52
  ret ptr %5
}

; Function Attrs: alwaysinline mustprogress nounwind uwtable
define linkonce_odr hidden noundef ptr @_ZN4ncnn3MatcvPT_IhEEv(ptr noundef nonnull align 8 dereferenceable(72) %0) #9 comdat align 2 {
  %2 = alloca ptr, align 8
  store ptr %0, ptr %2, align 8, !tbaa !35
  %3 = load ptr, ptr %2, align 8
  %4 = getelementptr inbounds nuw %"class.ncnn::Mat", ptr %3, i32 0, i32 0
  %5 = load ptr, ptr %4, align 8, !tbaa !52
  ret ptr %5
}

; Function Attrs: alwaysinline norecurse nounwind uwtable
define internal void @_ZNK4ncnn7Packing7forwardERKNS_3MatERS1_RKNS_6OptionE.omp_outlined(ptr noalias noundef %0, ptr noalias noundef %1, ptr noundef nonnull align 4 dereferenceable(4) %2, ptr noundef nonnull align 8 dereferenceable(72) %3, ptr noundef nonnull align 4 dereferenceable(4) %4, ptr noundef nonnull align 8 dereferenceable(8) %5, ptr noundef %6, ptr noundef nonnull align 4 dereferenceable(4) %7, ptr noundef nonnull align 4 dereferenceable(4) %8, ptr noundef nonnull align 8 dereferenceable(72) %9, ptr noundef nonnull align 8 dereferenceable(8) %10, ptr noundef nonnull align 8 dereferenceable(8) %11) #7 personality ptr @__gxx_personality_v0 {
  %13 = alloca ptr, align 8
  %14 = alloca ptr, align 8
  %15 = alloca ptr, align 8
  %16 = alloca ptr, align 8
  %17 = alloca ptr, align 8
  %18 = alloca ptr, align 8
  %19 = alloca ptr, align 8
  %20 = alloca ptr, align 8
  %21 = alloca ptr, align 8
  %22 = alloca ptr, align 8
  %23 = alloca ptr, align 8
  %24 = alloca ptr, align 8
  %25 = alloca ptr, align 8
  %26 = alloca ptr, align 8
  %27 = alloca i32, align 4
  %28 = alloca i32, align 4
  %29 = alloca i32, align 4
  %30 = alloca i32, align 4
  %31 = alloca i32, align 4
  %32 = alloca i32, align 4
  %33 = alloca i32, align 4
  %34 = alloca i32, align 4
  %35 = alloca i32, align 4
  %36 = alloca ptr, align 8
  %37 = alloca i32, align 4
  %38 = alloca i32, align 4
  %39 = alloca ptr, align 8
  %40 = alloca i32, align 4
  %41 = alloca i32, align 4
  %42 = alloca i32, align 4
  %43 = alloca ptr, align 8
  %44 = alloca ptr, align 8
  store ptr %0, ptr %13, align 8, !tbaa !60
  store ptr %1, ptr %14, align 8, !tbaa !60
  store ptr %2, ptr %15, align 8, !tbaa !60
  store ptr %3, ptr %16, align 8, !tbaa !35
  store ptr %4, ptr %17, align 8, !tbaa !60
  store ptr %5, ptr %18, align 8, !tbaa !61
  store ptr %6, ptr %19, align 8, !tbaa !4
  store ptr %7, ptr %20, align 8, !tbaa !60
  store ptr %8, ptr %21, align 8, !tbaa !60
  store ptr %9, ptr %22, align 8, !tbaa !35
  store ptr %10, ptr %23, align 8, !tbaa !61
  store ptr %11, ptr %24, align 8, !tbaa !61
  %45 = load ptr, ptr %15, align 8, !tbaa !60
  %46 = load ptr, ptr %16, align 8, !tbaa !35
  %47 = load ptr, ptr %17, align 8, !tbaa !60
  %48 = load ptr, ptr %18, align 8, !tbaa !61
  %49 = load ptr, ptr %19, align 8, !tbaa !4
  %50 = load ptr, ptr %20, align 8, !tbaa !60
  %51 = load ptr, ptr %21, align 8, !tbaa !60
  %52 = load ptr, ptr %22, align 8, !tbaa !35
  %53 = load ptr, ptr %23, align 8, !tbaa !61
  %54 = load ptr, ptr %24, align 8, !tbaa !61
  store ptr %46, ptr %25, align 8
  store ptr %52, ptr %26, align 8
  call void @llvm.lifetime.start.p0(i64 4, ptr %27) #8
  call void @llvm.lifetime.start.p0(i64 4, ptr %28) #8
  %55 = load i32, ptr %45, align 4, !tbaa !41
  store i32 %55, ptr %28, align 4, !tbaa !41
  call void @llvm.lifetime.start.p0(i64 4, ptr %29) #8
  %56 = load i32, ptr %28, align 4, !tbaa !41
  %57 = sub nsw i32 %56, 0
  %58 = sdiv i32 %57, 1
  %59 = sub nsw i32 %58, 1
  store i32 %59, ptr %29, align 4, !tbaa !41
  call void @llvm.lifetime.start.p0(i64 4, ptr %30) #8
  store i32 0, ptr %30, align 4, !tbaa !41
  call void @llvm.lifetime.end.p0(i64 4, ptr %30) #8
  %60 = load i32, ptr %28, align 4, !tbaa !41
  %61 = icmp slt i32 0, %60
  br i1 %61, label %62, label %186

62:                                               ; preds = %12
  call void @llvm.lifetime.start.p0(i64 4, ptr %31) #8
  store i32 0, ptr %31, align 4, !tbaa !41
  call void @llvm.lifetime.start.p0(i64 4, ptr %32) #8
  %63 = load i32, ptr %29, align 4, !tbaa !41
  store i32 %63, ptr %32, align 4, !tbaa !41
  call void @llvm.lifetime.start.p0(i64 4, ptr %33) #8
  store i32 1, ptr %33, align 4, !tbaa !41
  call void @llvm.lifetime.start.p0(i64 4, ptr %34) #8
  store i32 0, ptr %34, align 4, !tbaa !41
  call void @llvm.lifetime.start.p0(i64 4, ptr %35) #8
  %64 = load ptr, ptr %13, align 8
  %65 = load i32, ptr %64, align 4, !tbaa !41
  call void @__kmpc_for_static_init_4(ptr @1, i32 %65, i32 34, ptr %34, ptr %31, ptr %32, ptr %33, i32 1, i32 1)
  %66 = load i32, ptr %32, align 4, !tbaa !41
  %67 = load i32, ptr %29, align 4, !tbaa !41
  %68 = icmp sgt i32 %66, %67
  br i1 %68, label %69, label %71

69:                                               ; preds = %62
  %70 = load i32, ptr %29, align 4, !tbaa !41
  br label %73

71:                                               ; preds = %62
  %72 = load i32, ptr %32, align 4, !tbaa !41
  br label %73

73:                                               ; preds = %71, %69
  %74 = phi i32 [ %70, %69 ], [ %72, %71 ]
  store i32 %74, ptr %32, align 4, !tbaa !41
  %75 = load i32, ptr %31, align 4, !tbaa !41
  store i32 %75, ptr %27, align 4, !tbaa !41
  br label %76

76:                                               ; preds = %179, %73
  %77 = load i32, ptr %27, align 4, !tbaa !41
  %78 = load i32, ptr %32, align 4, !tbaa !41
  %79 = icmp sle i32 %77, %78
  br i1 %79, label %81, label %80

80:                                               ; preds = %76
  br label %182

81:                                               ; preds = %76
  %82 = load i32, ptr %27, align 4, !tbaa !41
  %83 = mul nsw i32 %82, 1
  %84 = add nsw i32 0, %83
  store i32 %84, ptr %35, align 4, !tbaa !41
  call void @llvm.lifetime.start.p0(i64 8, ptr %36) #8
  %85 = load ptr, ptr %25, align 8, !tbaa !35
  %86 = invoke noundef ptr @_ZN4ncnn3MatcvPT_IhEEv(ptr noundef nonnull align 8 dereferenceable(72) %85)
          to label %87 unwind label %187

87:                                               ; preds = %81
  %88 = load i32, ptr %35, align 4, !tbaa !41
  %89 = sext i32 %88 to i64
  %90 = load i32, ptr %47, align 4, !tbaa !41
  %91 = sext i32 %90 to i64
  %92 = mul i64 %89, %91
  %93 = load i64, ptr %48, align 8, !tbaa !48
  %94 = mul i64 %92, %93
  %95 = getelementptr inbounds nuw i8, ptr %86, i64 %94
  store ptr %95, ptr %36, align 8, !tbaa !63
  call void @llvm.lifetime.start.p0(i64 4, ptr %37) #8
  store i32 0, ptr %37, align 4, !tbaa !41
  br label %96

96:                                               ; preds = %174, %87
  %97 = load i32, ptr %37, align 4, !tbaa !41
  %98 = load i32, ptr %47, align 4, !tbaa !41
  %99 = icmp slt i32 %97, %98
  br i1 %99, label %101, label %100

100:                                              ; preds = %96
  store i32 6, ptr %38, align 4
  call void @llvm.lifetime.end.p0(i64 4, ptr %37) #8
  br label %177

101:                                              ; preds = %96
  call void @llvm.lifetime.start.p0(i64 8, ptr %39) #8
  %102 = load ptr, ptr %36, align 8, !tbaa !63
  %103 = load i32, ptr %37, align 4, !tbaa !41
  %104 = sext i32 %103 to i64
  %105 = load i64, ptr %48, align 8, !tbaa !48
  %106 = mul i64 %104, %105
  %107 = getelementptr inbounds nuw i8, ptr %102, i64 %106
  store ptr %107, ptr %39, align 8, !tbaa !63
  call void @llvm.lifetime.start.p0(i64 4, ptr %40) #8
  store i32 0, ptr %40, align 4, !tbaa !41
  br label %108

108:                                              ; preds = %169, %101
  %109 = load i32, ptr %40, align 4, !tbaa !41
  %110 = getelementptr inbounds nuw %"class.ncnn::Packing", ptr %49, i32 0, i32 1
  %111 = load i32, ptr %110, align 8, !tbaa !11
  %112 = icmp slt i32 %109, %111
  br i1 %112, label %114, label %113

113:                                              ; preds = %108
  store i32 9, ptr %38, align 4
  br label %172

114:                                              ; preds = %108
  call void @llvm.lifetime.start.p0(i64 4, ptr %41) #8
  %115 = load i32, ptr %35, align 4, !tbaa !41
  %116 = getelementptr inbounds nuw %"class.ncnn::Packing", ptr %49, i32 0, i32 1
  %117 = load i32, ptr %116, align 8, !tbaa !11
  %118 = mul nsw i32 %115, %117
  %119 = load i32, ptr %40, align 4, !tbaa !41
  %120 = add nsw i32 %118, %119
  %121 = load i32, ptr %50, align 4, !tbaa !41
  %122 = sdiv i32 %120, %121
  store i32 %122, ptr %41, align 4, !tbaa !41
  %123 = load i32, ptr %41, align 4, !tbaa !41
  %124 = load i32, ptr %51, align 4, !tbaa !41
  %125 = icmp sge i32 %123, %124
  br i1 %125, label %126, label %127

126:                                              ; preds = %114
  store i32 9, ptr %38, align 4
  br label %166

127:                                              ; preds = %114
  call void @llvm.lifetime.start.p0(i64 4, ptr %42) #8
  %128 = load i32, ptr %35, align 4, !tbaa !41
  %129 = getelementptr inbounds nuw %"class.ncnn::Packing", ptr %49, i32 0, i32 1
  %130 = load i32, ptr %129, align 8, !tbaa !11
  %131 = mul nsw i32 %128, %130
  %132 = load i32, ptr %40, align 4, !tbaa !41
  %133 = add nsw i32 %131, %132
  %134 = load i32, ptr %50, align 4, !tbaa !41
  %135 = srem i32 %133, %134
  store i32 %135, ptr %42, align 4, !tbaa !41
  call void @llvm.lifetime.start.p0(i64 8, ptr %43) #8
  %136 = load ptr, ptr %26, align 8, !tbaa !35
  %137 = invoke noundef ptr @_ZNK4ncnn3MatcvPKT_IhEEv(ptr noundef nonnull align 8 dereferenceable(72) %136)
          to label %138 unwind label %187

138:                                              ; preds = %127
  %139 = load i32, ptr %41, align 4, !tbaa !41
  %140 = sext i32 %139 to i64
  %141 = load i32, ptr %47, align 4, !tbaa !41
  %142 = sext i32 %141 to i64
  %143 = mul i64 %140, %142
  %144 = load i64, ptr %53, align 8, !tbaa !48
  %145 = mul i64 %143, %144
  %146 = getelementptr inbounds nuw i8, ptr %137, i64 %145
  store ptr %146, ptr %43, align 8, !tbaa !63
  call void @llvm.lifetime.start.p0(i64 8, ptr %44) #8
  %147 = load ptr, ptr %43, align 8, !tbaa !63
  %148 = load i32, ptr %37, align 4, !tbaa !41
  %149 = sext i32 %148 to i64
  %150 = load i64, ptr %53, align 8, !tbaa !48
  %151 = mul i64 %149, %150
  %152 = getelementptr inbounds nuw i8, ptr %147, i64 %151
  store ptr %152, ptr %44, align 8, !tbaa !63
  %153 = load ptr, ptr %39, align 8, !tbaa !63
  %154 = load i32, ptr %40, align 4, !tbaa !41
  %155 = sext i32 %154 to i64
  %156 = load i64, ptr %54, align 8, !tbaa !48
  %157 = mul i64 %155, %156
  %158 = getelementptr inbounds nuw i8, ptr %153, i64 %157
  %159 = load ptr, ptr %44, align 8, !tbaa !63
  %160 = load i32, ptr %42, align 4, !tbaa !41
  %161 = sext i32 %160 to i64
  %162 = load i64, ptr %54, align 8, !tbaa !48
  %163 = mul i64 %161, %162
  %164 = getelementptr inbounds nuw i8, ptr %159, i64 %163
  %165 = load i64, ptr %54, align 8, !tbaa !48
  call void @llvm.memcpy.p0.p0.i64(ptr align 1 %158, ptr align 1 %164, i64 %165, i1 false)
  call void @llvm.lifetime.end.p0(i64 8, ptr %44) #8
  call void @llvm.lifetime.end.p0(i64 8, ptr %43) #8
  call void @llvm.lifetime.end.p0(i64 4, ptr %42) #8
  store i32 0, ptr %38, align 4
  br label %166

166:                                              ; preds = %138, %126
  call void @llvm.lifetime.end.p0(i64 4, ptr %41) #8
  %167 = load i32, ptr %38, align 4
  switch i32 %167, label %172 [
    i32 0, label %168
  ]

168:                                              ; preds = %166
  br label %169

169:                                              ; preds = %168
  %170 = load i32, ptr %40, align 4, !tbaa !41
  %171 = add nsw i32 %170, 1
  store i32 %171, ptr %40, align 4, !tbaa !41
  br label %108, !llvm.loop !64

172:                                              ; preds = %166, %113
  call void @llvm.lifetime.end.p0(i64 4, ptr %40) #8
  br label %173

173:                                              ; preds = %172
  call void @llvm.lifetime.end.p0(i64 8, ptr %39) #8
  br label %174

174:                                              ; preds = %173
  %175 = load i32, ptr %37, align 4, !tbaa !41
  %176 = add nsw i32 %175, 1
  store i32 %176, ptr %37, align 4, !tbaa !41
  br label %96, !llvm.loop !66

177:                                              ; preds = %100
  call void @llvm.lifetime.end.p0(i64 8, ptr %36) #8
  br label %178

178:                                              ; preds = %177
  br label %179

179:                                              ; preds = %178
  %180 = load i32, ptr %27, align 4, !tbaa !41
  %181 = add nsw i32 %180, 1
  store i32 %181, ptr %27, align 4, !tbaa !41
  br label %76

182:                                              ; preds = %80
  br label %183

183:                                              ; preds = %182
  %184 = load ptr, ptr %13, align 8
  %185 = load i32, ptr %184, align 4, !tbaa !41
  call void @__kmpc_for_static_fini(ptr @1, i32 %185)
  call void @llvm.lifetime.end.p0(i64 4, ptr %35) #8
  call void @llvm.lifetime.end.p0(i64 4, ptr %34) #8
  call void @llvm.lifetime.end.p0(i64 4, ptr %33) #8
  call void @llvm.lifetime.end.p0(i64 4, ptr %32) #8
  call void @llvm.lifetime.end.p0(i64 4, ptr %31) #8
  br label %186

186:                                              ; preds = %183, %12
  call void @llvm.lifetime.end.p0(i64 4, ptr %29) #8
  call void @llvm.lifetime.end.p0(i64 4, ptr %28) #8
  call void @llvm.lifetime.end.p0(i64 4, ptr %27) #8
  ret void

187:                                              ; preds = %127, %81
  %188 = landingpad { ptr, i32 }
          catch ptr null
  %189 = extractvalue { ptr, i32 } %188, 0
  call void @__clang_call_terminate(ptr %189) #13
  unreachable
}