; Function Attrs: alwaysinline norecurse nounwind uwtable
define internal void @_ZNK4ncnn7Packing7forwardERKNS_3MatERS1_RKNS_6OptionE.omp_outlined(ptr noalias noundef readonly captures(none) %0, ptr noalias readnone captures(none) %1, ptr noundef nonnull readonly align 4 captures(none) dereferenceable(4) %2, ptr noundef nonnull readonly align 8 captures(none) dereferenceable(72) %3, ptr noundef nonnull readonly align 4 captures(none) dereferenceable(4) %4, ptr noundef nonnull readonly align 8 captures(none) dereferenceable(8) %5, ptr noundef readonly captures(none) %6, ptr noundef nonnull readonly align 4 captures(none) dereferenceable(4) %7, ptr noundef nonnull readonly align 4 captures(none) dereferenceable(4) %8, ptr noundef nonnull readonly align 8 captures(none) dereferenceable(72) %9, ptr noundef nonnull readonly align 8 captures(none) dereferenceable(8) %10, ptr noundef nonnull readonly align 8 captures(none) dereferenceable(8) %11) #6 personality ptr @__gxx_personality_v0 {
  %13 = alloca i32, align 4
  %14 = alloca i32, align 4
  %15 = alloca i32, align 4
  %16 = alloca i32, align 4
  %17 = load i32, ptr %2, align 4, !tbaa !34
  %18 = icmp sgt i32 %17, 0
  br i1 %18, label %19, label %83

19:                                               ; preds = %12
  %20 = add nsw i32 %17, -1
  call void @llvm.lifetime.start.p0(i64 4, ptr nonnull %13) #7
  store i32 0, ptr %13, align 4, !tbaa !34
  call void @llvm.lifetime.start.p0(i64 4, ptr nonnull %14) #7
  store i32 %20, ptr %14, align 4, !tbaa !34
  call void @llvm.lifetime.start.p0(i64 4, ptr nonnull %15) #7
  store i32 1, ptr %15, align 4, !tbaa !34
  call void @llvm.lifetime.start.p0(i64 4, ptr nonnull %16) #7
  store i32 0, ptr %16, align 4, !tbaa !34
  %21 = load i32, ptr %0, align 4, !tbaa !34
  call void @__kmpc_for_static_init_4(ptr nonnull @1, i32 %21, i32 34, ptr nonnull %16, ptr nonnull %13, ptr nonnull %14, ptr nonnull %15, i32 1, i32 1)
  %22 = load i32, ptr %14, align 4, !tbaa !34
  %23 = call i32 @llvm.smin.i32(i32 %22, i32 %20)
  store i32 %23, ptr %14, align 4, !tbaa !34
  %24 = load i32, ptr %13, align 4, !tbaa !34
  %.not51 = icmp sgt i32 %24, %23
  br i1 %.not51, label %._crit_edge56, label %.lr.ph55

.lr.ph55:                                         ; preds = %19
  %25 = getelementptr inbounds nuw i8, ptr %6, i64 208
  %26 = load i32, ptr %4, align 4, !tbaa !34
  %27 = icmp sgt i32 %26, 0
  br i1 %27, label %.lr.ph55.split.preheader, label %._crit_edge56

.lr.ph55.split.preheader:                         ; preds = %.lr.ph55
  %28 = sext i32 %24 to i64
  br label %.lr.ph55.split

.lr.ph55.split:                                   ; preds = %.lr.ph55.split.preheader, %._crit_edge
  %29 = phi i32 [ %23, %.lr.ph55.split.preheader ], [ %42, %._crit_edge ]
  %30 = phi i32 [ %26, %.lr.ph55.split.preheader ], [ %43, %._crit_edge ]
  %31 = phi i32 [ %26, %.lr.ph55.split.preheader ], [ %44, %._crit_edge ]
  %indvars.iv63 = phi i64 [ %28, %.lr.ph55.split.preheader ], [ %indvars.iv.next64, %._crit_edge ]
  %32 = load ptr, ptr %3, align 8, !tbaa !37
  %33 = sext i32 %31 to i64
  %34 = mul nsw i64 %indvars.iv63, %33
  %35 = load i64, ptr %5, align 8, !tbaa !47
  %36 = mul i64 %34, %35
  %37 = getelementptr inbounds nuw i8, ptr %32, i64 %36
  %38 = icmp sgt i32 %31, 0
  br i1 %38, label %.lr.ph50, label %._crit_edge

.lr.ph50:                                         ; preds = %.lr.ph55.split
  %39 = load i32, ptr %25, align 8, !tbaa !4
  %40 = icmp sgt i32 %39, 0
  br i1 %40, label %.lr.ph50.split.preheader, label %._crit_edge

.lr.ph50.split.preheader:                         ; preds = %.lr.ph50
  %41 = trunc nsw i64 %indvars.iv63 to i32
  br label %.lr.ph50.split

._crit_edge.loopexit:                             ; preds = %.critedge
  %.pre66 = load i32, ptr %14, align 4, !tbaa !34
  br label %._crit_edge

._crit_edge:                                      ; preds = %.lr.ph50, %._crit_edge.loopexit, %.lr.ph55.split
  %42 = phi i32 [ %.pre66, %._crit_edge.loopexit ], [ %29, %.lr.ph55.split ], [ %29, %.lr.ph50 ]
  %43 = phi i32 [ %79, %._crit_edge.loopexit ], [ %30, %.lr.ph55.split ], [ %30, %.lr.ph50 ]
  %44 = phi i32 [ %79, %._crit_edge.loopexit ], [ %31, %.lr.ph55.split ], [ %31, %.lr.ph50 ]
  %indvars.iv.next64 = add nsw i64 %indvars.iv63, 1
  %45 = sext i32 %42 to i64
  %.not.not = icmp slt i64 %indvars.iv63, %45
  br i1 %.not.not, label %.lr.ph55.split, label %._crit_edge56, !llvm.loop !53

.lr.ph50.split:                                   ; preds = %.lr.ph50.split.preheader, %.critedge
  %46 = phi i32 [ %30, %.lr.ph50.split.preheader ], [ %79, %.critedge ]
  %47 = phi i32 [ %39, %.lr.ph50.split.preheader ], [ %80, %.critedge ]
  %indvars.iv60 = phi i64 [ 0, %.lr.ph50.split.preheader ], [ %indvars.iv.next61, %.critedge ]
  %48 = load i64, ptr %5, align 8, !tbaa !47
  %49 = mul i64 %48, %indvars.iv60
  %50 = getelementptr inbounds nuw i8, ptr %37, i64 %49
  %51 = icmp sgt i32 %47, 0
  br i1 %51, label %.lr.ph, label %.critedge

.lr.ph:                                           ; preds = %.lr.ph50.split, %60
  %52 = phi i32 [ %76, %60 ], [ %47, %.lr.ph50.split ]
  %indvars.iv = phi i64 [ %indvars.iv.next, %60 ], [ 0, %.lr.ph50.split ]
  %53 = mul nsw i32 %52, %41
  %54 = trunc nuw nsw i64 %indvars.iv to i32
  %55 = add nsw i32 %53, %54
  %56 = load i32, ptr %7, align 4, !tbaa !34
  %57 = sdiv i32 %55, %56
  %58 = srem i32 %55, %56
  %59 = load i32, ptr %8, align 4, !tbaa !34
  %.not46 = icmp slt i32 %57, %59
  %.pre.pre67 = load i32, ptr %4, align 4, !tbaa !34
  br i1 %.not46, label %60, label %.critedge

60:                                               ; preds = %.lr.ph
  %61 = load ptr, ptr %9, align 8, !tbaa !37
  %62 = sext i32 %57 to i64
  %63 = sext i32 %.pre.pre67 to i64
  %64 = mul nsw i64 %63, %62
  %65 = load i64, ptr %10, align 8, !tbaa !47
  %66 = mul i64 %64, %65
  %67 = getelementptr inbounds nuw i8, ptr %61, i64 %66
  %68 = mul i64 %65, %indvars.iv60
  %69 = getelementptr inbounds nuw i8, ptr %67, i64 %68
  %70 = load i64, ptr %11, align 8, !tbaa !47
  %71 = mul i64 %70, %indvars.iv
  %72 = getelementptr inbounds nuw i8, ptr %50, i64 %71
  %73 = sext i32 %58 to i64
  %74 = mul i64 %70, %73
  %75 = getelementptr inbounds nuw i8, ptr %69, i64 %74
  call void @llvm.memcpy.p0.p0.i64(ptr align 1 %72, ptr align 1 %75, i64 %70, i1 false)
  %indvars.iv.next = add nuw nsw i64 %indvars.iv, 1
  %76 = load i32, ptr %25, align 8, !tbaa !4
  %77 = sext i32 %76 to i64
  %78 = icmp slt i64 %indvars.iv.next, %77
  br i1 %78, label %.lr.ph, label %..critedge.loopexit_crit_edge, !llvm.loop !55

..critedge.loopexit_crit_edge:                    ; preds = %60
  %.pre.pre = load i32, ptr %4, align 4, !tbaa !34
  br label %.critedge

.critedge:                                        ; preds = %.lr.ph, %..critedge.loopexit_crit_edge, %.lr.ph50.split
  %79 = phi i32 [ %46, %.lr.ph50.split ], [ %.pre.pre, %..critedge.loopexit_crit_edge ], [ %.pre.pre67, %.lr.ph ]
  %80 = phi i32 [ %47, %.lr.ph50.split ], [ %76, %..critedge.loopexit_crit_edge ], [ %52, %.lr.ph ]
  %indvars.iv.next61 = add nuw nsw i64 %indvars.iv60, 1
  %81 = sext i32 %79 to i64
  %82 = icmp slt i64 %indvars.iv.next61, %81
  br i1 %82, label %.lr.ph50.split, label %._crit_edge.loopexit, !llvm.loop !57

._crit_edge56:                                    ; preds = %._crit_edge, %.lr.ph55, %19
  call void @__kmpc_for_static_fini(ptr nonnull @1, i32 %21)
  call void @llvm.lifetime.end.p0(i64 4, ptr nonnull %16) #7
  call void @llvm.lifetime.end.p0(i64 4, ptr nonnull %15) #7
  call void @llvm.lifetime.end.p0(i64 4, ptr nonnull %14) #7
  call void @llvm.lifetime.end.p0(i64 4, ptr nonnull %13) #7
  br label %83

83:                                               ; preds = %._crit_edge56, %12
  ret void
}